target datalayout = "e-m:e-p270:32:32-p271:32:32-p272:64:64-i64:64-i128:128-f80:128-n8:16:32:64-S128"
target triple = "x86_64-unknown-linux-gnu"

%struct.PCIDevice = type { %struct.DeviceState, i8, i8, ptr, ptr, ptr, ptr, ptr, i32, %struct.PCIReqIDCache, [64 x i8], [7 x %struct.PCIIORegion], %struct.AddressSpace, %struct.MemoryRegion, %struct.MemoryRegion, ptr, ptr, [3 x ptr], i8, i8, i32, i8, i32, ptr, ptr, ptr, ptr, ptr, ptr, %struct.MemoryRegion, %struct.MemoryRegion, %struct.MemoryRegion, ptr, i8, i32, i8, %struct.PCIExpressDevice, ptr, ptr, i32, i8, %struct.MemoryRegion, i32, ptr, ptr, ptr, ptr, ptr, i32 }
%struct.DeviceState = type { %struct.Object, ptr, ptr, i8, i8, i64, ptr, i32, i8, ptr, %struct.NamedGPIOListHead, %struct.NamedClockListHead, %struct.BusStateHead, i32, i32, i32, %struct.ResettableState, ptr, %struct.MemReentrancyGuard }
%struct.Object = type { ptr, ptr, ptr, i32, ptr }
%struct.NamedGPIOListHead = type { ptr }
%struct.NamedClockListHead = type { ptr }
%struct.BusStateHead = type { ptr }
%struct.ResettableState = type { i32, i8, i8 }
%struct.MemReentrancyGuard = type { i8 }
%struct.PCIReqIDCache = type { ptr, i32 }
%struct.PCIIORegion = type { i64, i64, i8, ptr, ptr }
%struct.AddressSpace = type { %struct.rcu_head, ptr, ptr, ptr, i32, i32, ptr, %union.anon, %union.anon.0 }
%struct.rcu_head = type { ptr, ptr }
%union.anon = type { %struct.QTailQLink }
%struct.QTailQLink = type { ptr, ptr }
%union.anon.0 = type { %struct.QTailQLink }
%struct.PCIExpressDevice = type { i8, i8, i8, i16, %struct.PCIEAERLog, i16, i16, i16, %struct.PCIESriovPF, %struct.PCIESriovVF }
%struct.PCIEAERLog = type { i16, i16, ptr }
%struct.PCIESriovPF = type { i16, [7 x i8], ptr, ptr }
%struct.PCIESriovVF = type { ptr, i16 }
%struct.MemoryRegion = type { %struct.Object, i8, i8, i8, i8, i8, i8, i8, i8, i8, i8, ptr, ptr, ptr, ptr, ptr, ptr, i32, i128, i64, ptr, i64, i8, i8, i8, i8, i8, ptr, i64, i32, %union.anon.1, %union.anon.2, %union.anon.3, ptr, i32, ptr, ptr, i8 }
%union.anon.1 = type { %struct.QTailQLink }
%union.anon.2 = type { %struct.QTailQLink }
%union.anon.3 = type { %struct.QTailQLink }
%struct.IVShmemState = type { %struct.PCIDevice, i32, ptr, %struct.CharBackend, i32, i32, i32, %struct.MemoryRegion, ptr, %struct.MemoryRegion, ptr, i32, i32, ptr, i64, i32, i32, ptr }
%struct.CharBackend = type { ptr, ptr, ptr, ptr, ptr, ptr, i32, i32 }

@.str = private unnamed_addr constant [15 x i8] c"ivshmem-common\00", align 1
@.str.1 = private unnamed_addr constant [11 x i8] c"pci-device\00", align 1
@.str.6 = private unnamed_addr constant [106 x i8] c"/home/dtcxzyw/WorkSpace/Projects/compilers/llvm-opt-benchmark/bench/qemu/qemu/include/hw/pci/pci_device.h\00", align 1
@.str.7 = private unnamed_addr constant [26 x i8] c"../qemu/hw/misc/ivshmem.c\00", align 1
@__func__.IVSHMEM_COMMON = private unnamed_addr constant [15 x i8] c"IVSHMEM_COMMON\00", align 1
@__func__.PCI_DEVICE = private unnamed_addr constant [11 x i8] c"PCI_DEVICE\00", align 1

; Function Attrs: nounwind sspstrong uwtable
define internal ptr @PCI_DEVICE(ptr noundef %obj) #0 {
entry:
  %obj.addr = alloca ptr, align 8
  store ptr %obj, ptr %obj.addr, align 8
  %0 = load ptr, ptr %obj.addr, align 8
  %call = call ptr @object_dynamic_cast_assert(ptr noundef %0, ptr noundef @.str.1, ptr noundef @.str.6, i32 noundef 10, ptr noundef @__func__.PCI_DEVICE)
  ret ptr %call
}

; Function Attrs: nounwind sspstrong uwtable
define internal void @ivshmem_msix_vector_use(ptr noundef %s) #0 {
entry:
  %s.addr = alloca ptr, align 8
  %d = alloca ptr, align 8
  %i = alloca i32, align 4
  store ptr %s, ptr %s.addr, align 8
  %0 = load ptr, ptr %s.addr, align 8
  %call = call ptr @PCI_DEVICE(ptr noundef %0)
  store ptr %call, ptr %d, align 8
  store i32 0, ptr %i, align 4
  br label %for.cond

for.cond:                                         ; preds = %for.inc, %entry
  %1 = load i32, ptr %i, align 4
  %2 = load ptr, ptr %s.addr, align 8
  %vectors = getelementptr inbounds %struct.IVShmemState, ptr %2, i32 0, i32 12
  %3 = load i32, ptr %vectors, align 4
  %cmp = icmp ult i32 %1, %3
  br i1 %cmp, label %for.body, label %for.end

for.body:                                         ; preds = %for.cond
  %4 = load ptr, ptr %d, align 8
  %5 = load i32, ptr %i, align 4
  call void @msix_vector_use(ptr noundef %4, i32 noundef %5)
  br label %for.inc

for.inc:                                          ; preds = %for.body
  %6 = load i32, ptr %i, align 4
  %inc = add i32 %6, 1
  store i32 %inc, ptr %i, align 4
  br label %for.cond, !llvm.loop !12

for.end:                                          ; preds = %for.cond
  ret void
}

; Function Attrs: nounwind sspstrong uwtable
define internal i32 @ivshmem_has_feature(ptr noundef %ivs, i32 noundef %feature) #0 {
entry:
  %ivs.addr = alloca ptr, align 8
  %feature.addr = alloca i32, align 4
  store ptr %ivs, ptr %ivs.addr, align 8
  store i32 %feature, ptr %feature.addr, align 4
  %0 = load ptr, ptr %ivs.addr, align 8
  %features = getelementptr inbounds %struct.IVShmemState, ptr %0, i32 0, i32 1
  %1 = load i32, ptr %features, align 16
  %2 = load i32, ptr %feature.addr, align 4
  %shl = shl i32 1, %2
  %and = and i32 %1, %shl
  ret i32 %and
}

; Function Attrs: nounwind sspstrong uwtable
define internal ptr @IVSHMEM_COMMON(ptr noundef %obj) #0 {
entry:
  %obj.addr = alloca ptr, align 8
  store ptr %obj, ptr %obj.addr, align 8
  %0 = load ptr, ptr %obj.addr, align 8
  %call = call ptr @object_dynamic_cast_assert(ptr noundef %0, ptr noundef @.str, ptr noundef @.str.7, i32 noundef 63, ptr noundef @__func__.IVSHMEM_COMMON)
  ret ptr %call
}

; Function Attrs: nounwind sspstrong uwtable
define internal void @ivshmem_reset(ptr noundef %d) #0 {
entry:
  %d.addr = alloca ptr, align 8
  %s = alloca ptr, align 8
  store ptr %d, ptr %d.addr, align 8
  %0 = load ptr, ptr %d.addr, align 8
  %call = call ptr @IVSHMEM_COMMON(ptr noundef %0)
  store ptr %call, ptr %s, align 8
  %1 = load ptr, ptr %s, align 8
  call void @ivshmem_disable_irqfd(ptr noundef %1)
  %2 = load ptr, ptr %s, align 8
  %intrstatus = getelementptr inbounds %struct.IVShmemState, ptr %2, i32 0, i32 5
  store i32 0, ptr %intrstatus, align 4
  %3 = load ptr, ptr %s, align 8
  %intrmask = getelementptr inbounds %struct.IVShmemState, ptr %3, i32 0, i32 4
  store i32 0, ptr %intrmask, align 8
  %4 = load ptr, ptr %s, align 8
  %call1 = call i32 @ivshmem_has_feature(ptr noundef %4, i32 noundef 1)
  %tobool = icmp ne i32 %call1, 0
  br i1 %tobool, label %if.then, label %if.end

if.then:                                          ; preds = %entry
  %5 = load ptr, ptr %s, align 8
  call void @ivshmem_msix_vector_use(ptr noundef %5)
  br label %if.end

if.end:                                           ; preds = %if.then, %entry
  ret void
}